; Function Attrs: mustprogress nounwind uwtable
define internal fastcc void @_ZN5clang19RecursiveASTVisitorIN12_GLOBAL__N_111TypeIndexerEE23VisitOMPExclusiveClauseEPNS_18OMPExclusiveClauseE(ptr noundef nonnull readonly align 1 captures(none) dereferenceable(1) %0, ptr noundef nonnull readonly %1) unnamed_addr #0 align 2 {
  %3 = getelementptr inbounds nuw i8, ptr %1, i64 16
  %4 = load i32, ptr %3, align 4
  %5 = zext i32 %4 to i64
  %.idx.i = shl nuw nsw i64 %5, 3
  %6 = getelementptr inbounds nuw i8, ptr %1, i64 %.idx.i
  %.ptr13.i = getelementptr inbounds nuw i8, ptr %6, i64 24
  %.not11.i = icmp eq i32 %4, 0
  br i1 %.not11.i, label %_ZN5clang19RecursiveASTVisitorIN12_GLOBAL__N_111TypeIndexerEE18VisitOMPClauseListINS_18OMPExclusiveClauseEEEbPT_.exit, label %.lr.ph.i

.lr.ph.i:                                         ; preds = %2
  %.ptr.i = getelementptr inbounds nuw i8, ptr %1, i64 24
  %7 = getelementptr inbounds nuw i8, ptr %0, i64 8
  %8 = getelementptr inbounds nuw i8, ptr %0, i64 16
  br label %9

9:                                                ; preds = %9, %.lr.ph.i
  %.01012.i = phi ptr [ %.ptr.i, %.lr.ph.i ], [ %14, %9 ]
  %10 = load ptr, ptr %.01012.i, align 8
  %11 = load ptr, ptr %0, align 8
  %12 = load ptr, ptr %7, align 8
  %13 = load ptr, ptr %8, align 8
  tail call void @_ZN5clang5index15IndexingContext9indexBodyEPKNS_4StmtEPKNS_9NamedDeclEPKNS_11DeclContextE(ptr noundef nonnull align 8 dereferenceable(64) %11, ptr noundef %10, ptr noundef %12, ptr noundef %13) #13
  %14 = getelementptr inbounds nuw i8, ptr %.01012.i, i64 8
  %.not.i = icmp eq ptr %14, %.ptr13.i
  br i1 %.not.i, label %_ZN5clang19RecursiveASTVisitorIN12_GLOBAL__N_111TypeIndexerEE18VisitOMPClauseListINS_18OMPExclusiveClauseEEEbPT_.exit, label %9

_ZN5clang19RecursiveASTVisitorIN12_GLOBAL__N_111TypeIndexerEE18VisitOMPClauseListINS_18OMPExclusiveClauseEEEbPT_.exit: ; preds = %9, %2
  ret void
}